; Function Attrs: mustprogress uwtable
define hidden noundef i64 @_ZN3sls10arith_baseI13checked_int64ILb1EEE6to_numERK8rational(ptr noundef nonnull readnone align 8 captures(none) dereferenceable(672) %0, ptr noundef nonnull align 8 dereferenceable(32) %1) local_unnamed_addr #3 align 2 {
  %3 = getelementptr inbounds nuw i8, ptr %1, i64 16
  %4 = getelementptr inbounds nuw i8, ptr %1, i64 20
  %5 = load i8, ptr %4, align 4
  %6 = and i8 %5, 1
  %7 = icmp eq i8 %6, 0
  %8 = load i32, ptr %3, align 8
  %9 = icmp eq i32 %8, 1
  %10 = select i1 %7, i1 %9, i1 false
  br i1 %10, label %_ZNK8rational8is_int64Ev.exit, label %_ZNK8rational8is_int64Ev.exit.thread

_ZNK8rational8is_int64Ev.exit:                    ; preds = %2
  %11 = load ptr, ptr @_ZN8rational13g_mpq_managerE, align 8, !tbaa !11
  %12 = tail call noundef zeroext i1 @_ZNK11mpz_managerILb1EE8is_int64ERK3mpz(ptr noundef nonnull align 8 dereferenceable(728) %11, ptr noundef nonnull align 8 dereferenceable(32) %1)
  br i1 %12, label %14, label %_ZNK8rational8is_int64Ev.exit.thread

_ZNK8rational8is_int64Ev.exit.thread:             ; preds = %2, %_ZNK8rational8is_int64Ev.exit
  %13 = tail call ptr @__cxa_allocate_exception(i64 8) #26
  store ptr getelementptr inbounds nuw inrange(-16, 32) (i8, ptr @_ZTV18overflow_exception, i64 16), ptr %13, align 8, !tbaa !13
  tail call void @__cxa_throw(ptr nonnull %13, ptr nonnull @_ZTI18overflow_exception, ptr nonnull @_ZNSt9exceptionD2Ev) #27
  unreachable

14:                                               ; preds = %_ZNK8rational8is_int64Ev.exit
  %15 = load ptr, ptr @_ZN8rational13g_mpq_managerE, align 8, !tbaa !11
  %16 = tail call noundef i64 @_ZNK11mpz_managerILb1EE9get_int64ERK3mpz(ptr noundef nonnull align 8 dereferenceable(728) %15, ptr noundef nonnull align 8 dereferenceable(32) %1)
  ret i64 %16
}